target datalayout = "e-m:e-p270:32:32-p271:32:32-p272:64:64-i64:64-i128:128-f80:128-n8:16:32:64-S128"
target triple = "x86_64-pc-linux-gnu"

@_maketaps_bilinear.bootstrap = internal constant [4 x float] [float 0.000000e+00, float 1.000000e+00, float 2.000000e+00, float 3.000000e+00], align 16

; Function Attrs: nounwind uwtable
define internal float @_maketaps_bilinear(ptr noundef %0, i64 noundef %1, float noundef %2, float noundef %3, float noundef %4) #0 {
  %6 = alloca ptr, align 8
  %7 = alloca i64, align 8
  %8 = alloca float, align 4
  %9 = alloca float, align 4
  %10 = alloca float, align 4
  %11 = alloca [4 x float], align 16
  %12 = alloca [4 x float], align 16
  %13 = alloca i64, align 8
  %14 = alloca i64, align 8
  %15 = alloca i32, align 4
  %16 = alloca i64, align 8
  %17 = alloca i32, align 4
  %18 = alloca i64, align 8
  %19 = alloca i64, align 8
  store ptr %0, ptr %6, align 8, !tbaa !11
  store i64 %1, ptr %7, align 8, !tbaa !21
  store float %2, ptr %8, align 4, !tbaa !13
  store float %3, ptr %9, align 4, !tbaa !13
  store float %4, ptr %10, align 4, !tbaa !13
  call void @llvm.lifetime.start.p0(i64 16, ptr %11) #11
  call void @llvm.lifetime.start.p0(i64 16, ptr %12) #11
  call void @llvm.lifetime.start.p0(i64 8, ptr %13) #11
  store i64 0, ptr %13, align 8, !tbaa !21
  br label %20

20:                                               ; preds = %29, %5
  %21 = load i64, ptr %13, align 8, !tbaa !21
  %22 = icmp ult i64 %21, 4
  br i1 %22, label %24, label %23

23:                                               ; preds = %20
  call void @llvm.lifetime.end.p0(i64 8, ptr %13) #11
  br label %32

24:                                               ; preds = %20
  %25 = load float, ptr %10, align 4, !tbaa !13
  %26 = fmul reassoc nsz arcp contract afn float 4.000000e+00, %25
  %27 = load i64, ptr %13, align 8, !tbaa !21
  %28 = getelementptr inbounds nuw [4 x float], ptr %11, i64 0, i64 %27
  store float %26, ptr %28, align 4, !tbaa !13
  br label %29

29:                                               ; preds = %24
  %30 = load i64, ptr %13, align 8, !tbaa !21
  %31 = add i64 %30, 1
  store i64 %31, ptr %13, align 8, !tbaa !21
  br label %20

32:                                               ; preds = %23
  call void @llvm.lifetime.start.p0(i64 8, ptr %14) #11
  store i64 0, ptr %14, align 8, !tbaa !21
  br label %33

33:                                               ; preds = %47, %32
  %34 = load i64, ptr %14, align 8, !tbaa !21
  %35 = icmp ult i64 %34, 4
  br i1 %35, label %37, label %36

36:                                               ; preds = %33
  call void @llvm.lifetime.end.p0(i64 8, ptr %14) #11
  br label %50

37:                                               ; preds = %33
  %38 = load float, ptr %9, align 4, !tbaa !13
  %39 = load i64, ptr %14, align 8, !tbaa !21
  %40 = getelementptr inbounds nuw [4 x float], ptr @_maketaps_bilinear.bootstrap, i64 0, i64 %39
  %41 = load float, ptr %40, align 4, !tbaa !13
  %42 = load float, ptr %10, align 4, !tbaa !13
  %43 = fmul reassoc nsz arcp contract afn float %41, %42
  %44 = fadd reassoc nsz arcp contract afn float %38, %43
  %45 = load i64, ptr %14, align 8, !tbaa !21
  %46 = getelementptr inbounds nuw [4 x float], ptr %12, i64 0, i64 %45
  store float %44, ptr %46, align 4, !tbaa !13
  br label %47

47:                                               ; preds = %37
  %48 = load i64, ptr %14, align 8, !tbaa !21
  %49 = add i64 %48, 1
  store i64 %49, ptr %14, align 8, !tbaa !21
  br label %33

50:                                               ; preds = %36
  call void @llvm.lifetime.start.p0(i64 4, ptr %15) #11
  %51 = load i64, ptr %7, align 8, !tbaa !21
  %52 = add i64 %51, 3
  %53 = udiv i64 %52, 4
  %54 = trunc i64 %53 to i32
  store i32 %54, ptr %15, align 4, !tbaa !15
  call void @llvm.lifetime.start.p0(i64 8, ptr %16) #11
  store i64 0, ptr %16, align 8, !tbaa !21
  br label %55

55:                                               ; preds = %109, %50
  %56 = load i64, ptr %16, align 8, !tbaa !21
  %57 = load i32, ptr %15, align 4, !tbaa !15
  %58 = sext i32 %57 to i64
  %59 = icmp ult i64 %56, %58
  br i1 %59, label %61, label %60

60:                                               ; preds = %55
  store i32 8, ptr %17, align 4
  call void @llvm.lifetime.end.p0(i64 8, ptr %16) #11
  br label %112

61:                                               ; preds = %55
  call void @llvm.lifetime.start.p0(i64 8, ptr %18) #11
  store i64 0, ptr %18, align 8, !tbaa !21
  br label %62

62:                                               ; preds = %89, %61
  %63 = load i64, ptr %18, align 8, !tbaa !21
  %64 = icmp ult i64 %63, 4
  br i1 %64, label %66, label %65

65:                                               ; preds = %62
  store i32 11, ptr %17, align 4
  call void @llvm.lifetime.end.p0(i64 8, ptr %18) #11
  br label %92

66:                                               ; preds = %62
  %67 = load i64, ptr %18, align 8, !tbaa !21
  %68 = getelementptr inbounds nuw [4 x float], ptr %12, i64 0, i64 %67
  %69 = load float, ptr %68, align 4, !tbaa !13
  %70 = fcmp reassoc nsz arcp contract afn olt float %69, 0.000000e+00
  br i1 %70, label %71, label %76

71:                                               ; preds = %66
  %72 = load i64, ptr %18, align 8, !tbaa !21
  %73 = getelementptr inbounds nuw [4 x float], ptr %12, i64 0, i64 %72
  %74 = load float, ptr %73, align 4, !tbaa !13
  %75 = fneg reassoc nsz arcp contract afn float %74
  br label %80

76:                                               ; preds = %66
  %77 = load i64, ptr %18, align 8, !tbaa !21
  %78 = getelementptr inbounds nuw [4 x float], ptr %12, i64 0, i64 %77
  %79 = load float, ptr %78, align 4, !tbaa !13
  br label %80

80:                                               ; preds = %76, %71
  %81 = phi reassoc nsz arcp contract afn float [ %75, %71 ], [ %79, %76 ]
  %82 = fsub reassoc nsz arcp contract afn float 1.000000e+00, %81
  %83 = load ptr, ptr %6, align 8, !tbaa !11
  %84 = load i64, ptr %16, align 8, !tbaa !21
  %85 = mul i64 4, %84
  %86 = load i64, ptr %18, align 8, !tbaa !21
  %87 = add i64 %85, %86
  %88 = getelementptr inbounds nuw float, ptr %83, i64 %87
  store float %82, ptr %88, align 4, !tbaa !13
  br label %89

89:                                               ; preds = %80
  %90 = load i64, ptr %18, align 8, !tbaa !21
  %91 = add i64 %90, 1
  store i64 %91, ptr %18, align 8, !tbaa !21
  br label %62

92:                                               ; preds = %65
  call void @llvm.lifetime.start.p0(i64 8, ptr %19) #11
  store i64 0, ptr %19, align 8, !tbaa !21
  br label %93

93:                                               ; preds = %105, %92
  %94 = load i64, ptr %19, align 8, !tbaa !21
  %95 = icmp ult i64 %94, 4
  br i1 %95, label %97, label %96

96:                                               ; preds = %93
  store i32 14, ptr %17, align 4
  call void @llvm.lifetime.end.p0(i64 8, ptr %19) #11
  br label %108

97:                                               ; preds = %93
  %98 = load i64, ptr %19, align 8, !tbaa !21
  %99 = getelementptr inbounds nuw [4 x float], ptr %11, i64 0, i64 %98
  %100 = load float, ptr %99, align 4, !tbaa !13
  %101 = load i64, ptr %19, align 8, !tbaa !21
  %102 = getelementptr inbounds nuw [4 x float], ptr %12, i64 0, i64 %101
  %103 = load float, ptr %102, align 4, !tbaa !13
  %104 = fadd reassoc nsz arcp contract afn float %103, %100
  store float %104, ptr %102, align 4, !tbaa !13
  br label %105

105:                                              ; preds = %97
  %106 = load i64, ptr %19, align 8, !tbaa !21
  %107 = add i64 %106, 1
  store i64 %107, ptr %19, align 8, !tbaa !21
  br label %93

108:                                              ; preds = %96
  br label %109

109:                                              ; preds = %108
  %110 = load i64, ptr %16, align 8, !tbaa !21
  %111 = add i64 %110, 1
  store i64 %111, ptr %16, align 8, !tbaa !21
  br label %55

112:                                              ; preds = %60
  store i32 1, ptr %17, align 4
  call void @llvm.lifetime.end.p0(i64 4, ptr %15) #11
  call void @llvm.lifetime.end.p0(i64 16, ptr %12) #11
  call void @llvm.lifetime.end.p0(i64 16, ptr %11) #11
  ret float 1.000000e+00
}