; Function Attrs: nofree norecurse nosync nounwind memory(argmem: write) uwtable
define internal noundef float @_maketaps_bilinear(ptr noundef writeonly captures(none) %0, i64 noundef %1, float %2, float noundef %3, float noundef %4) #8 {
  %6 = alloca [4 x float], align 16
  %7 = alloca [4 x float], align 16
  call void @llvm.lifetime.start.p0(i64 16, ptr nonnull %6) #13
  call void @llvm.lifetime.start.p0(i64 16, ptr nonnull %7) #13
  %8 = fmul reassoc nsz arcp contract afn float %4, 4.000000e+00
  br label %9

9:                                                ; preds = %5, %9
  %.02733 = phi i64 [ 0, %5 ], [ %11, %9 ]
  %10 = getelementptr inbounds nuw [4 x float], ptr %6, i64 0, i64 %.02733
  store float %8, ptr %10, align 4, !tbaa !15
  %11 = add nuw nsw i64 %.02733, 1
  %exitcond.not = icmp eq i64 %11, 4
  br i1 %exitcond.not, label %.preheader32, label %9

.preheader31:                                     ; preds = %.preheader32
  %12 = shl i64 %1, 30
  %13 = add i64 %12, 3221225472
  %.not = icmp ult i64 %13, 4294967296
  br i1 %.not, label %._crit_edge, label %.preheader30.preheader

.preheader30.preheader:                           ; preds = %.preheader31
  %14 = ashr i64 %13, 32
  %umax = tail call i64 @llvm.umax.i64(i64 %14, i64 1)
  br label %.preheader30

.preheader32:                                     ; preds = %9, %.preheader32
  %.02834 = phi i64 [ %20, %.preheader32 ], [ 0, %9 ]
  %15 = getelementptr inbounds nuw [4 x float], ptr @_maketaps_lanczos.bootstrap, i64 0, i64 %.02834
  %16 = load float, ptr %15, align 4, !tbaa !15
  %17 = fmul reassoc nsz arcp contract afn float %16, %4
  %18 = fadd reassoc nsz arcp contract afn float %17, %3
  %19 = getelementptr inbounds nuw [4 x float], ptr %7, i64 0, i64 %.02834
  store float %18, ptr %19, align 4, !tbaa !15
  %20 = add nuw nsw i64 %.02834, 1
  %exitcond38.not = icmp eq i64 %20, 4
  br i1 %exitcond38.not, label %.preheader31, label %.preheader32

.preheader30:                                     ; preds = %.preheader30.preheader, %29
  %.02637 = phi i64 [ %30, %29 ], [ 0, %.preheader30.preheader ]
  %.idx = shl i64 %.02637, 4
  %invariant.gep = getelementptr i8, ptr %0, i64 %.idx
  br label %21

._crit_edge:                                      ; preds = %29, %.preheader31
  call void @llvm.lifetime.end.p0(i64 16, ptr nonnull %7) #13
  call void @llvm.lifetime.end.p0(i64 16, ptr nonnull %6) #13
  ret float 1.000000e+00

21:                                               ; preds = %.preheader30, %21
  %.02535 = phi i64 [ 0, %.preheader30 ], [ %28, %21 ]
  %22 = getelementptr inbounds nuw [4 x float], ptr %7, i64 0, i64 %.02535
  %23 = load float, ptr %22, align 4, !tbaa !15
  %24 = fcmp reassoc nsz arcp contract afn olt float %23, 0.000000e+00
  %25 = fneg reassoc nsz arcp contract afn float %23
  %26 = select reassoc nsz arcp contract afn i1 %24, float %25, float %23
  %27 = fsub reassoc nsz arcp contract afn float 1.000000e+00, %26
  %gep = getelementptr float, ptr %invariant.gep, i64 %.02535
  store float %27, ptr %gep, align 4, !tbaa !15
  %28 = add nuw nsw i64 %.02535, 1
  %exitcond39.not = icmp eq i64 %28, 4
  br i1 %exitcond39.not, label %.preheader, label %21

29:                                               ; preds = %.preheader
  %30 = add nuw i64 %.02637, 1
  %exitcond41.not = icmp eq i64 %30, %umax
  br i1 %exitcond41.not, label %._crit_edge, label %.preheader30

.preheader:                                       ; preds = %21, %.preheader
  %.036 = phi i64 [ %36, %.preheader ], [ 0, %21 ]
  %31 = getelementptr inbounds nuw [4 x float], ptr %6, i64 0, i64 %.036
  %32 = load float, ptr %31, align 4, !tbaa !15
  %33 = getelementptr inbounds nuw [4 x float], ptr %7, i64 0, i64 %.036
  %34 = load float, ptr %33, align 4, !tbaa !15
  %35 = fadd reassoc nsz arcp contract afn float %34, %32
  store float %35, ptr %33, align 4, !tbaa !15
  %36 = add nuw nsw i64 %.036, 1
  %exitcond40.not = icmp eq i64 %36, 4
  br i1 %exitcond40.not, label %29, label %.preheader
}